; Function Attrs: nounwind uwtable
define ptr @l_String_foldlAux___at_Lean_Json_escape___spec__1(ptr noundef %0, ptr noundef %1, ptr noundef %2, ptr noundef %3) local_unnamed_addr #0 {
  %5 = ptrtoint ptr %1 to i64
  %6 = and i64 %5, 1
  %.not33 = icmp eq i64 %6, 0
  br i1 %.not33, label %.split.us, label %.split, !prof !14

.split.us:                                        ; preds = %4, %lean_dec.exit20.us
  %.017.us = phi ptr [ %20, %lean_dec.exit20.us ], [ %3, %4 ]
  %.015.us = phi ptr [ %11, %lean_dec.exit20.us ], [ %2, %4 ]
  %7 = ptrtoint ptr %.015.us to i64
  %8 = and i64 %7, 1
  %.not.us = icmp eq i64 %8, 0
  %9 = tail call zeroext i1 @lean_nat_big_lt(ptr noundef %.015.us, ptr noundef %1) #3
  br i1 %.not.us, label %lean_nat_lt.exit.thread31.us, label %lean_nat_lt.exit.us, !prof !14

lean_nat_lt.exit.us:                              ; preds = %.split.us
  br i1 %9, label %10, label %.thread

lean_nat_lt.exit.thread31.us:                     ; preds = %.split.us
  br i1 %9, label %10, label %.split39.us

10:                                               ; preds = %lean_nat_lt.exit.thread31.us, %lean_nat_lt.exit.us
  %11 = tail call ptr @lean_string_utf8_next(ptr noundef %0, ptr noundef %.015.us) #3
  %12 = tail call i32 @lean_string_utf8_get(ptr noundef %0, ptr noundef %.015.us) #3
  br i1 %.not.us, label %13, label %lean_dec.exit20.us

13:                                               ; preds = %10
  %14 = load i32, ptr %.015.us, align 4, !tbaa !8
  %15 = icmp sgt i32 %14, 1
  br i1 %15, label %18, label %16, !prof !11

16:                                               ; preds = %13
  %.not.i21.us = icmp eq i32 %14, 0
  br i1 %.not.i21.us, label %lean_dec.exit20.us, label %17

17:                                               ; preds = %16
  tail call void @lean_dec_ref_cold(ptr noundef nonnull %.015.us) #3
  br label %lean_dec.exit20.us

18:                                               ; preds = %13
  %19 = add nsw i32 %14, -1
  store i32 %19, ptr %.015.us, align 4, !tbaa !8
  br label %lean_dec.exit20.us

lean_dec.exit20.us:                               ; preds = %18, %17, %16, %10
  %20 = tail call ptr @l___private_Lean_Data_Json_Printer_0__Lean_Json_escapeAux(ptr noundef %.017.us, i32 noundef %12)
  br label %.split.us

.split:                                           ; preds = %4, %lean_dec.exit20
  %.017 = phi ptr [ %40, %lean_dec.exit20 ], [ %3, %4 ]
  %.015 = phi ptr [ %31, %lean_dec.exit20 ], [ %2, %4 ]
  %21 = ptrtoint ptr %.015 to i64
  %22 = and i64 %21, 1
  %.not = icmp eq i64 %22, 0
  br i1 %.not, label %lean_nat_lt.exit.thread31, label %lean_nat_lt.exit.thread, !prof !14

lean_nat_lt.exit.thread:                          ; preds = %.split
  %.not34 = icmp ult ptr %.015, %1
  br i1 %.not34, label %30, label %.thread

lean_nat_lt.exit.thread31:                        ; preds = %.split
  %23 = tail call zeroext i1 @lean_nat_big_lt(ptr noundef %.015, ptr noundef %1) #3
  br i1 %23, label %30, label %.split39.us

.split39.us:                                      ; preds = %lean_nat_lt.exit.thread31, %lean_nat_lt.exit.thread31.us
  %.us-phi40 = phi ptr [ %.017.us, %lean_nat_lt.exit.thread31.us ], [ %.017, %lean_nat_lt.exit.thread31 ]
  %.us-phi41 = phi ptr [ %.015.us, %lean_nat_lt.exit.thread31.us ], [ %.015, %lean_nat_lt.exit.thread31 ]
  %24 = load i32, ptr %.us-phi41, align 4, !tbaa !8
  %25 = icmp sgt i32 %24, 1
  br i1 %25, label %26, label %28, !prof !11

26:                                               ; preds = %.split39.us
  %27 = add nsw i32 %24, -1
  store i32 %27, ptr %.us-phi41, align 4, !tbaa !8
  br label %.thread

28:                                               ; preds = %.split39.us
  %.not.i = icmp eq i32 %24, 0
  br i1 %.not.i, label %.thread, label %29

29:                                               ; preds = %28
  tail call void @lean_dec_ref_cold(ptr noundef nonnull %.us-phi41) #3
  br label %.thread

30:                                               ; preds = %lean_nat_lt.exit.thread31, %lean_nat_lt.exit.thread
  %31 = tail call ptr @lean_string_utf8_next(ptr noundef %0, ptr noundef %.015) #3
  %32 = tail call i32 @lean_string_utf8_get(ptr noundef %0, ptr noundef %.015) #3
  br i1 %.not, label %33, label %lean_dec.exit20

33:                                               ; preds = %30
  %34 = load i32, ptr %.015, align 4, !tbaa !8
  %35 = icmp sgt i32 %34, 1
  br i1 %35, label %36, label %38, !prof !11

36:                                               ; preds = %33
  %37 = add nsw i32 %34, -1
  store i32 %37, ptr %.015, align 4, !tbaa !8
  br label %lean_dec.exit20

38:                                               ; preds = %33
  %.not.i21 = icmp eq i32 %34, 0
  br i1 %.not.i21, label %lean_dec.exit20, label %39

39:                                               ; preds = %38
  tail call void @lean_dec_ref_cold(ptr noundef nonnull %.015) #3
  br label %lean_dec.exit20

lean_dec.exit20:                                  ; preds = %30, %36, %38, %39
  %40 = tail call ptr @l___private_Lean_Data_Json_Printer_0__Lean_Json_escapeAux(ptr noundef %.017, i32 noundef %32)
  br label %.split

.thread:                                          ; preds = %lean_nat_lt.exit.thread, %lean_nat_lt.exit.us, %29, %28, %26
  %.01737 = phi ptr [ %.us-phi40, %29 ], [ %.us-phi40, %28 ], [ %.us-phi40, %26 ], [ %.017.us, %lean_nat_lt.exit.us ], [ %.017, %lean_nat_lt.exit.thread ]
  ret ptr %.01737
}